target datalayout = "e-m:e-p270:32:32-p271:32:32-p272:64:64-i64:64-i128:128-f80:128-n8:16:32:64-S128"
target triple = "x86_64-pc-linux-gnu"

%"class.gmx::AnalysisDataModuleManager::Impl" = type { %"class.std::vector", [3 x i8], i8, i8, i8, i32, i32 }
%"class.std::vector" = type { %"struct.std::_Vector_base" }
%"struct.std::_Vector_base" = type { %"struct.std::_Vector_base<gmx::AnalysisDataModuleManager::Impl::ModuleInfo, std::allocator<gmx::AnalysisDataModuleManager::Impl::ModuleInfo>>::_Vector_impl" }
%"struct.std::_Vector_base<gmx::AnalysisDataModuleManager::Impl::ModuleInfo, std::allocator<gmx::AnalysisDataModuleManager::Impl::ModuleInfo>>::_Vector_impl" = type { %"struct.std::_Vector_base<gmx::AnalysisDataModuleManager::Impl::ModuleInfo, std::allocator<gmx::AnalysisDataModuleManager::Impl::ModuleInfo>>::_Vector_impl_data" }
%"struct.std::_Vector_base<gmx::AnalysisDataModuleManager::Impl::ModuleInfo, std::allocator<gmx::AnalysisDataModuleManager::Impl::ModuleInfo>>::_Vector_impl_data" = type { ptr, ptr, ptr }

; Function Attrs: mustprogress nounwind uwtable
define linkonce_odr void @_ZNSt15__new_allocatorIN3gmx25AnalysisDataModuleManager4Impl10ModuleInfoEEC2Ev(ptr noundef nonnull align 1 dereferenceable(1) %0) unnamed_addr #0 comdat align 2 {
  %2 = alloca ptr, align 8
  store ptr %0, ptr %2, align 8, !tbaa !36
  ret void
}

; Function Attrs: mustprogress nounwind uwtable
define linkonce_odr void @_ZNSt12_Vector_baseIN3gmx25AnalysisDataModuleManager4Impl10ModuleInfoESaIS3_EE17_Vector_impl_dataC2Ev(ptr noundef nonnull align 8 dereferenceable(24) %0) unnamed_addr #0 comdat align 2 {
  %2 = alloca ptr, align 8
  store ptr %0, ptr %2, align 8, !tbaa !31
  %3 = load ptr, ptr %2, align 8
  %4 = getelementptr inbounds nuw %"struct.std::_Vector_base<gmx::AnalysisDataModuleManager::Impl::ModuleInfo, std::allocator<gmx::AnalysisDataModuleManager::Impl::ModuleInfo>>::_Vector_impl_data", ptr %3, i32 0, i32 0
  store ptr null, ptr %4, align 8, !tbaa !33
  %5 = getelementptr inbounds nuw %"struct.std::_Vector_base<gmx::AnalysisDataModuleManager::Impl::ModuleInfo, std::allocator<gmx::AnalysisDataModuleManager::Impl::ModuleInfo>>::_Vector_impl_data", ptr %3, i32 0, i32 1
  store ptr null, ptr %5, align 8, !tbaa !34
  %6 = getelementptr inbounds nuw %"struct.std::_Vector_base<gmx::AnalysisDataModuleManager::Impl::ModuleInfo, std::allocator<gmx::AnalysisDataModuleManager::Impl::ModuleInfo>>::_Vector_impl_data", ptr %3, i32 0, i32 2
  store ptr null, ptr %6, align 8, !tbaa !35
  ret void
}

; Function Attrs: mustprogress nounwind uwtable
define linkonce_odr void @_ZNSaIN3gmx25AnalysisDataModuleManager4Impl10ModuleInfoEEC2Ev(ptr noundef nonnull align 1 dereferenceable(1) %0) unnamed_addr #0 comdat align 2 {
  %2 = alloca ptr, align 8
  store ptr %0, ptr %2, align 8, !tbaa !29
  %3 = load ptr, ptr %2, align 8
  call void @_ZNSt15__new_allocatorIN3gmx25AnalysisDataModuleManager4Impl10ModuleInfoEEC2Ev(ptr noundef nonnull align 1 dereferenceable(1) %3) #17
  ret void
}

; Function Attrs: mustprogress nounwind uwtable
define linkonce_odr void @_ZNSt12_Vector_baseIN3gmx25AnalysisDataModuleManager4Impl10ModuleInfoESaIS3_EE12_Vector_implC2Ev(ptr noundef nonnull align 8 dereferenceable(24) %0) unnamed_addr #0 comdat align 2 {
  %2 = alloca ptr, align 8
  store ptr %0, ptr %2, align 8, !tbaa !27
  %3 = load ptr, ptr %2, align 8
  call void @_ZNSaIN3gmx25AnalysisDataModuleManager4Impl10ModuleInfoEEC2Ev(ptr noundef nonnull align 1 dereferenceable(1) %3) #17
  call void @_ZNSt12_Vector_baseIN3gmx25AnalysisDataModuleManager4Impl10ModuleInfoESaIS3_EE17_Vector_impl_dataC2Ev(ptr noundef nonnull align 8 dereferenceable(24) %3) #17
  ret void
}

; Function Attrs: mustprogress nounwind uwtable
define linkonce_odr void @_ZNSt12_Vector_baseIN3gmx25AnalysisDataModuleManager4Impl10ModuleInfoESaIS3_EEC2Ev(ptr noundef nonnull align 8 dereferenceable(24) %0) unnamed_addr #0 comdat align 2 {
  %2 = alloca ptr, align 8
  store ptr %0, ptr %2, align 8, !tbaa !25
  %3 = load ptr, ptr %2, align 8
  %4 = getelementptr inbounds nuw %"struct.std::_Vector_base", ptr %3, i32 0, i32 0
  call void @_ZNSt12_Vector_baseIN3gmx25AnalysisDataModuleManager4Impl10ModuleInfoESaIS3_EE12_Vector_implC2Ev(ptr noundef nonnull align 8 dereferenceable(24) %4) #17
  ret void
}

; Function Attrs: mustprogress nounwind uwtable
define linkonce_odr void @_ZNSt6vectorIN3gmx25AnalysisDataModuleManager4Impl10ModuleInfoESaIS3_EEC2Ev(ptr noundef nonnull align 8 dereferenceable(24) %0) unnamed_addr #0 comdat align 2 {
  %2 = alloca ptr, align 8
  store ptr %0, ptr %2, align 8, !tbaa !23
  %3 = load ptr, ptr %2, align 8
  call void @_ZNSt12_Vector_baseIN3gmx25AnalysisDataModuleManager4Impl10ModuleInfoESaIS3_EEC2Ev(ptr noundef nonnull align 8 dereferenceable(24) %3) #17
  ret void
}

; Function Attrs: mustprogress nounwind uwtable
define void @_ZN3gmx25AnalysisDataModuleManager4ImplC2Ev(ptr noundef nonnull align 8 dereferenceable(40) %0) unnamed_addr #0 align 2 {
  %2 = alloca ptr, align 8
  store ptr %0, ptr %2, align 8, !tbaa !4
  %3 = load ptr, ptr %2, align 8
  %4 = getelementptr inbounds nuw %"class.gmx::AnalysisDataModuleManager::Impl", ptr %3, i32 0, i32 0
  call void @_ZNSt6vectorIN3gmx25AnalysisDataModuleManager4Impl10ModuleInfoESaIS3_EEC2Ev(ptr noundef nonnull align 8 dereferenceable(24) %4) #17
  %5 = getelementptr inbounds nuw %"class.gmx::AnalysisDataModuleManager::Impl", ptr %3, i32 0, i32 1
  call void @llvm.memset.p0.i64(ptr align 8 %5, i8 0, i64 3, i1 false)
  %6 = getelementptr inbounds nuw %"class.gmx::AnalysisDataModuleManager::Impl", ptr %3, i32 0, i32 2
  store i8 1, ptr %6, align 1, !tbaa !9
  %7 = getelementptr inbounds nuw %"class.gmx::AnalysisDataModuleManager::Impl", ptr %3, i32 0, i32 3
  store i8 0, ptr %7, align 4, !tbaa !19
  %8 = getelementptr inbounds nuw %"class.gmx::AnalysisDataModuleManager::Impl", ptr %3, i32 0, i32 4
  store i8 0, ptr %8, align 1, !tbaa !20
  %9 = getelementptr inbounds nuw %"class.gmx::AnalysisDataModuleManager::Impl", ptr %3, i32 0, i32 5
  store i32 0, ptr %9, align 8, !tbaa !21
  %10 = getelementptr inbounds nuw %"class.gmx::AnalysisDataModuleManager::Impl", ptr %3, i32 0, i32 6
  store i32 0, ptr %10, align 4, !tbaa !22
  ret void
}