; Function Attrs: mustprogress nofree norecurse nosync nounwind willreturn memory(argmem: write) uwtable
define void @_ZN3gmx25AnalysisDataModuleManager4ImplC2Ev(ptr noundef nonnull writeonly align 8 captures(none) dereferenceable(40) initializes((0, 30), (32, 40)) %0) unnamed_addr #0 align 2 {
  %2 = getelementptr inbounds nuw i8, ptr %0, i64 27
  tail call void @llvm.memset.p0.i64(ptr noundef nonnull align 8 dereferenceable(27) %0, i8 0, i64 27, i1 false)
  store i8 1, ptr %2, align 1, !tbaa !4
  %3 = getelementptr inbounds nuw i8, ptr %0, i64 28
  store i8 0, ptr %3, align 4, !tbaa !17
  %4 = getelementptr inbounds nuw i8, ptr %0, i64 29
  store i8 0, ptr %4, align 1, !tbaa !18
  %5 = getelementptr inbounds nuw i8, ptr %0, i64 32
  store i32 0, ptr %5, align 8, !tbaa !19
  %6 = getelementptr inbounds nuw i8, ptr %0, i64 36
  store i32 0, ptr %6, align 4, !tbaa !20
  ret void
}